(dp0
Vpink
p1
(dp2
S'Connex Component number :1'
p3
(lp4
Vhttp://www.pink-parsley.com/
p5
asS'Connex Component number :0'
p6
(lp7
Vhttp://www.pinkpaislee.com/
p8
aVhttp://www.littlepinkbook.com/
p9
aVhttp://thinkbeforeyoupink.org/
p10
aVhttp://www.pinkfloyd.com/
p11
aVhttp://www.pinkisthenewblog.com/
p12
aVhttps://www.youtube.com/watch?v=RLRLhV9U0kQ
p13
aVhttps://en.wikipedia.org/wiki/Pink
p14
asS'Connex Component number :2'
p15
(lp16
Vhttp://www.thomaspink.com/
p17
assVBolivia
p18
(dp19
S'Connex Component number :1'
p20
(lp21
Vhttp://www.eldiario.net/
p22
asS'Connex Component number :0'
p23
(lp24
Vhttp://www.lostiempos.com/
p25
aVhttp://www.encyclopedia.com/topic/Bolivia.aspx
p26
aVhttp://www.boliviaweb.com/
p27
aVhttp://www.bolivia.com/
p28
aVhttp://www.3m.com/
p29
aVhttps://en.wikipedia.org/wiki/Bolivia
p30
aVhttp://www.nytimes.com/2011/03/20/world/americas/20bolivia.html
p31
aVhttps://es.wikipedia.org/wiki/Bolivia
p32
assVcat
p33
(dp34
S'Connex Component number :1'
p35
(lp36
Vhttp://www.cat.com/
p37
asS'Connex Component number :0'
p38
(lp39
Vhttp://cat-bounce.com/
p40
aVhttps://finance.yahoo.com/q?s=cat
p41
aVhttp://www.nyan.cat/
p42
aVhttp://www.pon-cat.com/
p43
aVhttp://www.catchannel.com/
p44
aVhttp://www.i-love-cats.com/
p45
aVhttp://www.aspca.org/pet-care/cat-care
p46
asS'Connex Component number :2'
p47
(lp48
Vhttp://www.catversushuman.com/
p49
ass.