(dp0
Vgermany
p1
(dp2
Vhttp://www.w3.org/2000/01/rdf-schema#comment
p3
VGermany (/\u02c8d\u0292\u025crm\u0259ni/; German: Deutschland), officially the Federal Republic of Germany (German: Bundesrepublik Deutschland, pronounced [\u02c8b\u028and\u0259s\u0281epu\u02ccbli\u02d0k \u02c8d\u0254\u028ft\u0283lant] (13px )), is a federal parliamentary republic in western-central Europe. It consists of 16 constituent states, which retain limited sovereignty, and covers an area of 357,021 square kilometres (137,847 sq mi) with a largely temperate seasonal climate. Its capital and largest city is Berlin.
p4
sVhttp://dbpedia.org/property/populationEstimateYear
p5
V2014
p6
sVhttp://xmlns.com/foaf/0.1/depiction
p7
Vhttp://en.wikipedia.org/wiki/Special:FilePath/Flag_of_Germany.svg
p8
sVhttp://dbpedia.org/property/capital
p9
Vhttp://dbpedia.org/resource/Berlin
p10
sVhttp://dbpedia.org/ontology/PopulatedPlace/areaTotal
p11
V357168.0
p12
sVhttp://dbpedia.org/property/populationEstimateRank
p13
V16
p14
sVhttp://www.w3.org/2000/01/rdf-schema#label
p15
VGermany
p16
sVhttp://dbpedia.org/property/populationEstimate
p17
V80716000
p18
ss.