(dp0
Vpink
p1
(dp2
S'Connex Component number :1'
p3
(lp4
Vhttp://www.pink-parsley.com/
p5
asS'Connex Component number :0'
p6
(lp7
Vhttp://www.pinkpaislee.com/
p8
aVhttp://www.littlepinkbook.com/
p9
aVhttp://thinkbeforeyoupink.org/
p10
aVhttp://www.pinkfloyd.com/
p11
aVhttp://www.pinkisthenewblog.com/
p12
aVhttps://www.youtube.com/watch?v=RLRLhV9U0kQ
p13
aVhttps://en.wikipedia.org/wiki/Pink
p14
asS'Connex Component number :2'
p15
(lp16
Vhttp://www.thomaspink.com/
p17
assVBolivia
p18
(dp19
S'Connex Component number :1'
p20
(lp21
Vhttp://www.eldiario.net/
p22
asS'Connex Component number :0'
p23
(lp24
Vhttp://www.lostiempos.com/
p25
aVhttp://www.encyclopedia.com/topic/Bolivia.aspx
p26
aVhttp://www.boliviaweb.com/
p27
aVhttp://www.bolivia.com/
p28
aVhttp://www.3m.com/
p29
aVhttps://en.wikipedia.org/wiki/Bolivia
p30
aVhttp://www.nytimes.com/2011/03/20/world/americas/20bolivia.html
p31
aVhttps://es.wikipedia.org/wiki/Bolivia
p32
assVdog
p33
(dp34
S'Group :1'
p35
(lp36
Vhttp://www.i-love-dogs.com/
p37
asS'Group :0'
p38
(lp39
Vhttp://mcgruff.org/
p40
aVhttp://www.dogpile.com/
p41
aVhttp://www.dogchannel.com/
p42
aVhttp://www.thefreedictionary.com/dog
p43
aVhttp://www.nextdaypets.com/
p44
aVhttp://www.greatdogsite.com/
p45
aVhttp://diggingdog.com/
p46
aVhttp://www.dogstardaily.com/
p47
assVcat
p48
(dp49
S'Connex Component number :1'
p50
(lp51
Vhttp://www.cat.com/
p52
asS'Connex Component number :0'
p53
(lp54
Vhttp://cat-bounce.com/
p55
aVhttps://finance.yahoo.com/q?s=cat
p56
aVhttp://www.nyan.cat/
p57
aVhttp://www.pon-cat.com/
p58
aVhttp://www.catchannel.com/
p59
aVhttp://www.i-love-cats.com/
p60
aVhttp://www.aspca.org/pet-care/cat-care
p61
asS'Connex Component number :2'
p62
(lp63
Vhttp://www.catversushuman.com/
p64
assVgermany
p65
(dp66
S'Group :1'
p67
(lp68
Vhttps://finance.yahoo.com/q?s=%5EGDAXI
p69
asS'Group :0'
p70
(lp71
Vhttp://de.farnell.com/
p72
aVhttp://www.theguardian.com/world/germany
p73
aVhttp://www.vodafone.de/
p74
aVhttp://www.germany.travel/en/index.html
p75
aVhttp://www.lonelyplanet.com/germany
p76
aVhttp://germany.usembassy.gov/
p77
aVhttp://www.bicgraphic.com/
p78
asS'Group :2'
p79
(lp80
Vhttp://www.netsuite.com/portal/home.shtml
p81
assVbolivia
p82
(dp83
S'Group :0'
p84
(lp85
Vhttp://www.tripadvisor.com/Tourism-g294071-Bolivia-Vacations.html
p86
aVhttp://wikitravel.org/en/Bolivia
p87
aVhttp://www.bolivia.com/
p88
aVhttp://www.lonelyplanet.com/bolivia
p89
aVhttps://en.wikipedia.org/wiki/Bolivia
p90
aVhttp://www.bolivia.travel/
p91
aVhttp://travel.nationalgeographic.com/travel/countries/bolivia-guide/
p92
aVhttp://www.infoplease.com/country/bolivia.html
p93
ass.