(dp0
Vcat
p1
(dp2
VCategory:Industry
p3
(lp4
Vhttp://www.cat.com/
p5
asVowl#Thing
p6
(lp7
Vhttp://www.nyan.cat/
p8
aVhttps://finance.yahoo.com/q?s=cat
p9
aVhttp://www.i-love-cats.com/
p10
aVhttp://www.catchannel.com/
p11
ass.