(dp0
Vgoat
p1
(dp2
Vowl#Thing
p3
(lp4
Vhttp://www.girlandthegoat.com/
p5
aVhttp://www.woodtennis.com/goat.htm
p6
aVhttps://en.wikipedia.org/wiki/Goat
p7
aVhttp://adga.org/
p8
asVCategory:Video_signal
p9
(lp10
Vhttp://www.backcountry.com/explore
p11
assVcat
p12
(dp13
VCategory:Industry
p14
(lp15
Vhttp://www.cat.com/
p16
asVowl#Thing
p17
(lp18
Vhttp://www.nyan.cat/
p19
aVhttps://finance.yahoo.com/q?s=cat
p20
aVhttp://www.i-love-cats.com/
p21
aVhttp://www.catchannel.com/
p22
ass.